(lp0
F0.060288442006906355
aF0.09596727426610034
aF0.23146595403144085
aF0.17551040471899065
aF0.2014466240747516
aF0.19310082676042953
aF0.19659020851698847
aF0.25516461430802956
aF0.23672972606771917
a.