(lp0
F0.2833550138566823
aF0.16360699764303757
aF0.17968141208024502
aF0.13274968977333532
aF0.1626705411534049
aF0.32515919917494723
aF0.24441867534309808
aF0.3231413654943543
aF0.3272039302413098
a.