(lp0
(lp1
F0.20092412451361868
aF0.35526625824693686
aF0.33883161512027493
aF0.26718547341115434
aF0.24161585365853658
aF0.23563218390804597
aF0.205
aF0.20233463035019456
aF0.2392638036809816
aF0.21487603305785125
aF0.3218390804597701
aF0.25806451612903225
aF0.21568627450980393
aF0.20930232558139536
aF0.1724137931034483
aF0.1724137931034483
aF0.14814814814814814
aF0.18181818181818182
aF0.25
aF0.3125
aF0.42857142857142855
aF0.14285714285714285
aF0.2
aF0.25
aF0.25
aF0.25
aF0.25
aF0.25
aF0.3333333333333333
aF0.3333333333333333
aF0.3333333333333333
aF0.3333333333333333
aF0.3333333333333333
aF0.3333333333333333
aF0.6666666666666666
aF0.3333333333333333
aF0.5
aF0.5
aF1.0
aF1.0
aF1.0
aF1.0
aF1.0
aF1.0
aF1.0
aF1.0
aF1.0
aF1.0
aF1.0
aF1.0
aF1.0
aF1.0
aF1.0
aF1.0
aF1.0
aF1.0
aF1.0
aF1.0
aF1.0
aF1.0
aF1.0
aF1.0
aF1.0
aF1.0
aF1.0
aF1.0
aF1.0
aF1.0
aF1.0
aF1.0
aF1.0
aF1.0
aF1.0
aF1.0
aF1.0
aF1.0
aF1.0
aF1.0
aF1.0
aF1.0
aF1.0
aF1.0
aF1.0
aF1.0
aF1.0
aF1.0
aF1.0
aF1.0
aF1.0
aF1.0
aF1.0
aF1.0
aF1.0
aF1.0
aF1.0
aF1.0
aF1.0
aF1.0
aF1.0
aF1.0
aF1.0
aF1.0
aF1.0
aF1.0
aF1.0
aF1.0
aF1.0
aF1.0
aF1.0
aF1.0
aF1.0
aF1.0
aF1.0
aF1.0
aF1.0
aF1.0
aF1.0
aF1.0
aF1.0
aF1.0
aF1.0
aF1.0
aF1.0
aF1.0
aF1.0
aF1.0
aF1.0
aF1.0
aF1.0
aF1.0
aF1.0
aF1.0
aF1.0
aF1.0
aF1.0
aF1.0
aF1.0
aF1.0
aF1.0
aF1.0
aF1.0
aF1.0
aF1.0
aF1.0
aF1.0
aF1.0
aF1.0
aF1.0
aF1.0
aF1.0
aF1.0
aF1.0
aF1.0
aF1.0
aF1.0
aF1.0
aF1.0
aF1.0
aF1.0
aF1.0
aF1.0
aF1.0
aF1.0
aF1.0
aF1.0
aF1.0
aF1.0
aF1.0
aF1.0
aF1.0
aF1.0
aF1.0
aF1.0
aF1.0
aF1.0
aF1.0
aF1.0
aF1.0
aF1.0
aF1.0
aF1.0
aF1.0
aF1.0
aF1.0
aF1.0
aF1.0
aF1.0
aF1.0
aF1.0
aF1.0
aF1.0
aF1.0
aF1.0
aF1.0
aF1.0
aF1.0
aF1.0
aF1.0
aF1.0
aF1.0
aF1.0
aF1.0
aF1.0
aF1.0
aF1.0
aF1.0
aF1.0
aF1.0
aF1.0
aF1.0
aF1.0
aF1.0
aF1.0
aF1.0
aF1.0
aF1.0
aF1.0
aF1.0
aF1.0
aF1.0
aF1.0
aF1.0
aF1.0
aF1.0
aF1.0
aF1.0
aF1.0
aF1.0
aF1.0
aF1.0
aF1.0
aF1.0
aF1.0
aF1.0
aF1.0
aF1.0
aF1.0
aF1.0
aF1.0
aF1.0
aF1.0
aF1.0
aF1.0
aF1.0
aF1.0
aF1.0
aF1.0
aF1.0
aF1.0
aF1.0
aF1.0
aF1.0
aF1.0
aF1.0
aF1.0
aF1.0
aF1.0
aF1.0
aF1.0
aF1.0
aF1.0
aF1.0
aF1.0
aF1.0
aF1.0
aF1.0
aF1.0
aF1.0
aF1.0
aF1.0
aF1.0
aF1.0
aF1.0
aF1.0
aF1.0
aF1.0
aF1.0
aF1.0
aF1.0
aF1.0
aF1.0
aF1.0
aF1.0
aF1.0
aF1.0
aF1.0
aF1.0
aF1.0
aF1.0
aF1.0
aF1.0
aF1.0
aF1.0
aF1.0
aF1.0
aF1.0
aF1.0
aF1.0
aF1.0
aF1.0
aF1.0
aF1.0
aF1.0
aF1.0
aF1.0
aF1.0
aF1.0
aF1.0
aF1.0
aF1.0
aF1.0
aF1.0
aF1.0
aF1.0
aF1.0
aF1.0
aF1.0
aF1.0
aF1.0
aF1.0
aF1.0
aF1.0
aF1.0
aF1.0
aF1.0
aF1.0
aF1.0
aF1.0
aF1.0
aF1.0
aF1.0
aF0.0
aa(lp2
F0.1395413783473485
aF0.20354042785865628
aF0.15878977569118413
aF0.14733479736474347
aF0.1461799964215423
aF0.14980368468740562
aF0.15204957102001906
aF0.15793413173652696
aF0.175303197353914
aF0.1640378548895899
aF0.18552036199095023
aF0.18042813455657492
aF0.188
aF0.18285714285714286
aF0.16666666666666666
aF0.1926605504587156
aF0.10843373493975904
aF0.17142857142857143
aF0.15
aF0.20454545454545456
aF0.10810810810810811
aF0.15625
aF0.16666666666666666
aF0.3
aF0.0
aF0.0
aF0.15384615384615385
aF0.2727272727272727
aF0.09090909090909091
aF0.1
aF0.125
aF0.2857142857142857
aF0.4
aF0.0
aF0.5
aF0.25
aF0.3333333333333333
aF0.25
aF0.5
aF0.0
aF0.5
aF1.0
aa(lp3
F0.24562151010248245
aF0.2229272178910829
aF0.12317735242500287
aF0.11353524524256231
aF0.12828730323310397
aF0.1367669172932331
aF0.14048600564113692
aF0.1415762151958471
aF0.14439518682710575
aF0.14261069580218516
aF0.14164201183431951
aF0.14180929095354522
aF0.14530962599632127
aF0.15642023346303502
aF0.15370018975332067
aF0.16270783847980996
aF0.15263908701854492
aF0.18466898954703834
aF0.16500994035785288
aF0.1595238095238095
aF0.1813186813186813
aF0.1522491349480969
aF0.125
aF0.14953271028037382
aF0.15544041450777202
aF0.20606060606060606
aF0.16
aF0.14393939393939395
aF0.1271186440677966
aF0.1896551724137931
aF0.12
aF0.19101123595505617
aF0.10975609756097561
aF0.1095890410958904
aF0.0967741935483871
aF0.11864406779661017
aF0.1836734693877551
aF0.08888888888888889
aF0.20512820512820512
aF0.20588235294117646
aF0.06060606060606061
aF0.25806451612903225
aF0.21428571428571427
aF0.1111111111111111
aF0.15
aF0.17391304347826086
aF0.15789473684210525
aF0.2777777777777778
aF0.1111111111111111
aF0.0625
aF0.13333333333333333
aF0.14285714285714285
aF0.15384615384615385
aF0.09090909090909091
aF0.18181818181818182
aF0.1
aF0.0
aF0.1111111111111111
aF0.2222222222222222
aF0.0
aF0.14285714285714285
aF0.0
aF0.14285714285714285
aF0.0
aF0.2857142857142857
aF0.0
aF0.16666666666666666
aF0.0
aF0.3333333333333333
aF0.2
aF0.2
aF0.0
aF0.0
aF0.0
aF0.2
aF0.0
aF0.0
aF0.2
aF0.0
aF0.5
aF0.25
aF0.25
aF0.0
aF0.25
aF0.0
aF0.3333333333333333
aF0.0
aF0.0
aF0.0
aF0.0
aF0.0
aF0.0
aF0.0
aF0.0
aF0.0
aF0.0
aF0.0
aF0.0
aF0.0
aF0.0
aF0.0
aF0.0
aF0.0
aF0.5
aF0.0
aF0.0
aF0.5
aF0.0
aF0.0
aF0.5
aF0.0
aF0.0
aF0.0
aF0.5
aF0.0
aF0.0
aF0.0
aF0.5
aF0.0
aF0.0
aF0.0
aF0.0
aF0.0
aF0.0
aF0.0
aF0.0
aF0.0
aF0.0
aF0.0
aF0.0
aF0.0
aF0.0
aF0.0
aF0.0
aF0.0
aF0.0
aF0.0
aF0.0
aF0.0
aF0.0
aF0.0
aF0.0
aF0.0
aF0.0
aF0.0
aF0.0
aF0.0
aF0.0
aF0.0
aF0.0
aF0.0
aF0.0
aF0.0
aF0.0
aF0.0
aF0.0
aF0.0
aF0.0
aF0.0
aF0.0
aF0.0
aF1.0
aF0.0
aF0.0
aF1.0
aF0.0
aF0.0
aF0.0
aF0.0
aF0.0
aF0.0
aF0.0
aF0.0
aF0.0
aF0.0
aF0.0
aF0.0
aF0.0
aF0.0
aF0.0
aF0.0
aF0.0
aF0.0
aF0.0
aF0.0
aF0.0
aF0.0
aF0.0
aF0.0
aF0.0
aF0.0
aF0.0
aa(lp4
F0.2182842818849662
aF0.12865278480177664
aF0.08699387278125198
aF0.08504154561891798
aF0.09058480871813332
aF0.0969959266802444
aF0.0997808619430241
aF0.11605839416058394
aF0.11650890868596882
aF0.11691680563275894
aF0.11868446139180172
aF0.12172573189522343
aF0.13104761904761905
aF0.11620057859209257
aF0.13136574074074073
aF0.11212976022566996
aF0.120926243567753
aF0.13360739979445016
aF0.10218978102189781
aF0.10494752623688156
aF0.10416666666666667
aF0.12340425531914893
aF0.1568627450980392
aF0.0830860534124629
aF0.12171052631578948
aF0.12547528517110265
aF0.10434782608695652
aF0.13333333333333333
aF0.15591397849462366
aF0.10857142857142857
aF0.12337662337662338
aF0.11267605633802817
aF0.09302325581395349
aF0.14285714285714285
aF0.14814814814814814
aF0.07920792079207921
aF0.0989010989010989
aF0.12048192771084337
aF0.1038961038961039
aF0.12162162162162163
aF0.1
aF0.16393442622950818
aF0.1509433962264151
aF0.11538461538461539
aF0.0851063829787234
aF0.14285714285714285
aF0.1891891891891892
aF0.18181818181818182
aF0.22580645161290322
aF0.12
aF0.2
aF0.38095238095238093
aF0.3333333333333333
aF0.3157894736842105
aF0.15789473684210525
aF0.23529411764705882
aF0.058823529411764705
aF0.25
aF0.125
aF0.25
aF0.0625
aF0.0625
aF0.0625
aF0.1875
aF0.1875
aF0.25
aF0.2
aF0.26666666666666666
aF0.07142857142857142
aF0.35714285714285715
aF0.21428571428571427
aF0.2857142857142857
aF0.14285714285714285
aF0.21428571428571427
aF0.15384615384615385
aF0.3076923076923077
aF0.16666666666666666
aF0.08333333333333333
aF0.16666666666666666
aF0.36363636363636365
aF0.18181818181818182
aF0.1111111111111111
aF0.1111111111111111
aF0.1111111111111111
aF0.25
aF0.2857142857142857
aF0.0
aF0.2857142857142857
aF0.14285714285714285
aF0.0
aF0.2857142857142857
aF0.2857142857142857
aF0.14285714285714285
aF0.3333333333333333
aF0.14285714285714285
aF0.0
aF0.16666666666666666
aF0.16666666666666666
aF0.0
aF0.4
aF0.5
aF0.0
aF0.25
aF0.25
aF0.0
aF0.25
aF0.25
aF0.5
aF0.25
aF0.25
aF0.0
aF0.25
aF0.25
aF0.0
aF0.5
aF0.25
aF0.0
aF0.25
aF0.25
aF0.3333333333333333
aF0.25
aF0.3333333333333333
aF0.3333333333333333
aF0.3333333333333333
aF0.3333333333333333
aF0.0
aF0.3333333333333333
aF0.3333333333333333
aF0.0
aF0.6666666666666666
aF0.3333333333333333
aF0.0
aF0.3333333333333333
aF0.3333333333333333
aF0.0
aF0.6666666666666666
aF0.3333333333333333
aF0.0
aF0.5
aF0.5
aF0.0
aF1.0
aF0.5
aF0.0
aF0.5
aF0.5
aF0.0
aF0.5
aF0.5
aF0.0
aF0.5
aF0.5
aF0.0
aF0.5
aF0.5
aF0.0
aF0.5
aF0.5
aF0.0
aF0.0
aF0.5
aF0.5
aF0.0
aF0.5
aF0.0
aF0.5
aF0.5
aF0.0
aF0.0
aF1.0
aF0.0
aF0.0
aF0.5
aF0.5
aF0.0
aF0.5
aF0.0
aF0.0
aF0.5
aF0.0
aF0.0
aF0.5
aF0.5
aF0.0
aF0.5
aF0.0
aF0.0
aF0.5
aF0.0
aF0.0
aF1.0
aF0.0
aF0.0
aF0.5
aF0.5
aF0.0
aF1.0
aF0.0
aF0.0
aF1.0
aF0.0
aF0.0
aF0.0
aF0.0
aF0.0
aF0.0
aF0.0
aF0.0
aF1.0
aF0.0
aF0.0
aF0.0
aF0.0
aF0.0
aF0.0
aF0.0
aF0.0
aF0.0
aF0.0
aF0.0
aF0.0
aF0.0
aa(lp5
F0.20191107103218647
aF0.1945425192613107
aF0.13950455286492505
aF0.12490176068315914
aF0.12157797193539846
aF0.13091773250380498
aF0.13125213626523868
aF0.13303793364314276
aF0.13369989871219795
aF0.14553257900897387
aF0.14660012476606363
aF0.15255630445503862
aF0.15848122162608336
aF0.161273349118653
aF0.16458932566315115
aF0.15378356387306755
aF0.15885545140601876
aF0.1658682634730539
aF0.16583629893238433
aF0.17264957264957265
aF0.1860236220472441
aF0.1670616113744076
aF0.1855388813096862
aF0.16326530612244897
aF0.1855123674911661
aF0.17901234567901234
aF0.16511627906976745
aF0.1532258064516129
aF0.15072463768115943
aF0.1939799331103679
aF0.19330855018587362
aF0.16317991631799164
aF0.20454545454545456
aF0.24607329842931938
aF0.23295454545454544
aF0.2356687898089172
aF0.1836734693877551
aF0.16535433070866143
aF0.16393442622950818
aF0.23636363636363636
aF0.22772277227722773
aF0.1839080459770115
aF0.23376623376623376
aF0.16901408450704225
aF0.16129032258064516
aF0.20689655172413793
aF0.16666666666666666
aF0.12244897959183673
aF0.13333333333333333
aF0.06818181818181818
aF0.0975609756097561
aF0.17073170731707318
aF0.21052631578947367
aF0.22857142857142856
aF0.3333333333333333
aF0.2222222222222222
aF0.2916666666666667
aF0.15
aF0.17647058823529413
aF0.1875
aF0.14285714285714285
aF0.07692307692307693
aF0.2727272727272727
aF0.2727272727272727
aF0.2222222222222222
aF0.1
aF0.125
aF0.25
aF0.25
aF0.25
aF0.125
aF0.375
aF0.14285714285714285
aF0.2857142857142857
aF0.16666666666666666
aF0.5
aF0.16666666666666666
aF0.3333333333333333
aF0.3333333333333333
aF0.6666666666666666
aF0.2
aF0.2
aF0.0
aF0.25
aF0.0
aF0.5
aF0.0
aF0.3333333333333333
aF0.0
aF0.6666666666666666
aF0.0
aF1.0
aF0.0
aF1.0
aF0.0
aF0.5
aF0.0
aF0.0
aF0.0
aF0.0
aF0.0
aa(lp6
F0.31410020261558297
aF0.3932925287065608
aF0.28586365537432035
aF0.2569807037457435
aF0.25414103170847135
aF0.22896790980052037
aF0.23661971830985915
aF0.24721603563474387
aF0.25
aF0.21354166666666666
aF0.2602739726027397
aF0.29906542056074764
aF0.2823529411764706
aF0.1774193548387097
aF0.2653061224489796
aF0.21428571428571427
aF0.3235294117647059
aF0.2692307692307692
aF0.3181818181818182
aF0.3684210526315789
aF0.3333333333333333
aF0.25
aF0.3333333333333333
aF0.4166666666666667
aF0.5454545454545454
aF0.2727272727272727
aF0.4444444444444444
aF0.2857142857142857
aF0.42857142857142855
aF0.2
aF0.5
aF0.25
aF0.75
aF0.3333333333333333
aF0.5
aF0.5
aF0.0
aF0.0
aa(lp7
F0.2212208851934101
aF0.26285067223808234
aF0.20787114731284023
aF0.2570574821105607
aF0.289892752681183
aF0.2942888688146141
aF0.29037978424708144
aF0.285895538168746
aF0.2818365578977765
aF0.2850877192982456
aF0.26860158311345644
aF0.2686151704940849
aF0.2775250227479527
aF0.2570462232243517
aF0.28714285714285714
aF0.26958105646630237
aF0.25227272727272726
aF0.25977653631284914
aF0.2695035460992908
aF0.26609442060085836
aF0.2736842105263158
aF0.24183006535947713
aF0.20588235294117646
aF0.23008849557522124
aF0.22
aF0.2804878048780488
aF0.3333333333333333
aF0.2833333333333333
aF0.27450980392156865
aF0.14285714285714285
aF0.25
aF0.08823529411764706
aF0.13793103448275862
aF0.11538461538461539
aF0.20833333333333334
aF0.13043478260869565
aF0.15789473684210525
aF0.11764705882352941
aF0.23076923076923078
aF0.0
aF0.2727272727272727
aF0.125
aF0.25
aF0.2
aF0.2
aF0.4
aF0.4
aF0.0
aF0.2
aF0.2
aF0.2
aF0.0
aF0.3333333333333333
aF0.0
aF0.0
aF0.5
aF0.0
aF0.0
aF0.0
aF0.0
aF0.0
aF0.0
aF0.0
aF0.0
aF0.0
aF0.0
aF0.0
aa(lp8
F0.2810501044184632
aF0.36771935595884275
aF0.34264594841632556
aF0.334753776543535
aF0.3323973740409713
aF0.3234690179973427
aF0.31127303900557224
aF0.2994639666468136
aF0.29213483146067415
aF0.2899383983572895
aF0.27342105263157895
aF0.27925531914893614
aF0.28950592078399345
aF0.2582445459157788
aF0.27400611620795107
aF0.2717948717948718
aF0.29308836395450566
aF0.27991675338189387
aF0.24721878862793573
aF0.24172661870503598
aF0.2544570502431118
aF0.2357563850687623
aF0.24061810154525387
aF0.2512820512820513
aF0.2608695652173913
aF0.2161290322580645
aF0.22826086956521738
aF0.2723735408560311
aF0.2974137931034483
aF0.28
aF0.2647058823529412
aF0.22875816993464052
aF0.2746478873239437
aF0.33043478260869563
aF0.2523364485981308
aF0.2111111111111111
aF0.19540229885057472
aF0.27848101265822783
aF0.3157894736842105
aF0.2857142857142857
aF0.1724137931034483
aF0.2692307692307692
aF0.2765957446808511
aF0.2702702702702703
aF0.2564102564102564
aF0.17142857142857143
aF0.2647058823529412
aF0.13793103448275862
aF0.3103448275862069
aF0.17857142857142858
aF0.3333333333333333
aF0.1111111111111111
aF0.16666666666666666
aF0.20833333333333334
aF0.18181818181818182
aF0.23809523809523808
aF0.25
aF0.3333333333333333
aF0.25
aF0.17647058823529413
aF0.23076923076923078
aF0.07142857142857142
aF0.2
aF0.2
aF0.4
aF0.1
aF0.3333333333333333
aF0.1111111111111111
aF0.0
aF0.42857142857142855
aF0.42857142857142855
aF0.2857142857142857
aF0.2857142857142857
aF0.16666666666666666
aF0.2857142857142857
aF0.5
aF0.2
aF0.4
aF0.2
aF0.25
aF0.3333333333333333
aF0.6666666666666666
aF0.3333333333333333
aF0.6666666666666666
aF0.0
aF0.0
aF0.0
aF0.5
aF0.5
aF0.5
aF0.5
aF0.5
aF1.0
aF0.5
aF1.0
aF0.5
aF1.0
aF0.0
aF0.0
aF0.0
aF0.0
aF0.0
aF1.0
aF1.0
aF0.0
aF1.0
aF0.0
aF1.0
aF0.0
aF1.0
aF0.0
aF1.0
aF0.0
aF0.0
aF1.0
aF0.0
aF1.0
aF0.0
aF1.0
aF0.0
aF1.0
aF0.0
aF0.0
aF0.0
aF1.0
aF1.0
aF1.0
aF1.0
aF1.0
aF1.0
aa(lp9
F0.2221890483603819
aF0.3221371801050456
aF0.35387130823519675
aF0.39111781762234454
aF0.40438433853201006
aF0.39850824050550454
aF0.3882640118700043
aF0.3834218329770361
aF0.37084148727984345
aF0.3631528705850266
aF0.3514111787493083
aF0.3520916334661355
aF0.34327369118621603
aF0.3229078613693998
aF0.32676518883415434
aF0.31236749116607776
aF0.31982758620689655
aF0.3270509977827051
aF0.2945945945945946
aF0.298811544991511
aF0.27521008403361347
aF0.27989821882951654
aF0.2990936555891239
aF0.27636363636363637
aF0.29385964912280704
aF0.28421052631578947
aF0.2804878048780488
aF0.2608695652173913
aF0.3103448275862069
aF0.2524271844660194
aF0.18681318681318682
aF0.17333333333333334
aF0.2222222222222222
aF0.2727272727272727
aF0.19298245614035087
aF0.13725490196078433
aF0.20833333333333334
aF0.24444444444444444
aF0.1951219512195122
aF0.16216216216216217
aF0.2571428571428571
aF0.24242424242424243
aF0.23333333333333334
aF0.3333333333333333
aF0.2692307692307692
aF0.25
aF0.2608695652173913
aF0.3
aF0.2631578947368421
aF0.4117647058823529
aF0.4444444444444444
aF0.3125
aF0.3125
aF0.2
aF0.15384615384615385
aF0.2857142857142857
aF0.23076923076923078
aF0.3076923076923077
aF0.09090909090909091
aF0.18181818181818182
aF0.0
aF0.3333333333333333
aF0.2222222222222222
aF0.0
aF0.14285714285714285
aF0.0
aF0.2857142857142857
aF0.3333333333333333
aF0.0
aF0.0
aF0.16666666666666666
aF0.16666666666666666
aF0.2
aF0.4
aF0.0
aF0.2
aF0.4
aF0.2
aF0.5
aF0.5
aF0.25
aF0.0
aF0.6666666666666666
aF0.0
aF0.0
aF0.5
aF0.0
aF0.0
aF1.0
aF0.0
aF0.0
aF1.0
aF0.0
aF0.0
aF1.0
aF0.0
aF0.0
aF1.0
aF0.0
aF0.0
aF1.0
aF0.0
aF0.0
aF1.0
aF0.0
aF0.0
aF1.0
aF0.0
aF1.0
aF0.0
aF1.0
aF0.0
aF1.0
aF0.0
aF1.0
aF0.0
aF1.0
aF0.0
aF1.0
aF0.0
aF1.0
aF0.0
aF1.0
aF0.0
aF1.0
aF0.0
aF1.0
aF0.0
aF1.0
aF0.0
aF1.0
aF0.0
aF1.0
aF0.0
aF1.0
aF0.0
aF1.0
aF0.0
aF1.0
aF0.0
aF1.0
aF0.0
aF1.0
aF0.0
aF1.0
aF0.0
aF1.0
aF0.0
aF1.0
aF0.0
aF1.0
aF0.0
aF1.0
aF0.0
aF1.0
aF0.0
aF1.0
aF0.0
aF1.0
aF0.0
aF1.0
aF0.0
aF1.0
aF0.0
aF1.0
aF0.0
aF1.0
aF0.0
aF1.0
aF0.0
aF1.0
aF0.0
aF0.0
aF0.0
aF0.0
aF0.0
aF0.0
aF0.0
aF0.0
aF0.0
aF0.0
aF0.0
aF0.0
aF0.0
aF0.0
aF0.0
aF0.0
aF0.0
aF0.0
aF0.0
aF0.0
aF0.0
aF0.0
aF0.0
aF0.0
aF0.0
aF0.0
aF0.0
aF0.0
aF0.0
aF0.0
aF0.0
aF0.0
aF0.0
aF0.0
aF0.0
aF0.0
aF0.0
aF0.0
aF0.0
aF0.0
aF0.0
aF0.0
aF0.0
aF0.0
aF0.0
aF0.0
aF0.0
aF0.0
aF0.0
aF0.0
aa.